(dp0
S'Length of Trial (s)'
p1
F17.0
sS'Speed Factor'
p2
F1.0
sS'Number of Trials'
p3
F10.0
sS'Reward Size (mL)'
p4
F0.5
sS'Buffer (s)'
p5
F1.0
sS'Reward Size (s)'
p6
F3.0
sS'Length of Experiment (s)'
p7
F180.0
sS'File Location'
p8
S'/home/pi/OperantBox/git/OperantBox/test.csv'
p9
s.